; Function Attrs: mustprogress uwtable
define dso_local void @_ZN22b3GpuRigidBodyPipeline21copyConstraintsToHostEv(ptr nocapture noundef nonnull readonly align 8 dereferenceable(16) %this) local_unnamed_addr #2 align 2 {
entry:
  %m_data = getelementptr inbounds i8, ptr %this, i64 8
  %0 = load ptr, ptr %m_data, align 8
  %m_gpuConstraints = getelementptr inbounds i8, ptr %0, i64 152
  %1 = load ptr, ptr %m_gpuConstraints, align 8
  %m_cpuConstraints = getelementptr inbounds i8, ptr %0, i64 160
  tail call void @_ZNK13b3OpenCLArrayI22b3GpuGenericConstraintE10copyToHostER20b3AlignedObjectArrayIS0_Eb(ptr noundef nonnull align 8 dereferenceable(50) %1, ptr noundef nonnull align 8 dereferenceable(25) %m_cpuConstraints, i1 noundef zeroext true)
  ret void
}